; Function Attrs: mustprogress uwtable
define hidden void @_ZN4cvc58internal22LazyTreeProofGenerator10setCurrentEmNS_9ProofRuleERKSt6vectorINS0_12NodeTemplateILb1EEESaIS5_EES7_S5_(ptr nocapture noundef nonnull readonly align 8 dereferenceable(192) %this, i64 noundef %objectId, i32 noundef %rule, ptr noundef nonnull align 8 dereferenceable(24) %premise, ptr noundef %args, ptr nocapture noundef readonly %proven) local_unnamed_addr #3 align 2 {
entry:
  %_M_finish.i.i.i = getelementptr inbounds i8, ptr %this, i64 32
  %0 = load ptr, ptr %_M_finish.i.i.i, align 8
  %add.ptr.i.i.i = getelementptr inbounds i8, ptr %0, i64 -8
  %1 = load ptr, ptr %add.ptr.i.i.i, align 8
  store i64 %objectId, ptr %1, align 8
  %d_rule = getelementptr inbounds i8, ptr %1, i64 8
  store i32 %rule, ptr %d_rule, align 8
  %d_premise = getelementptr inbounds i8, ptr %1, i64 16
  %call2 = tail call noundef nonnull align 8 dereferenceable(24) ptr @_ZNSt6vectorIN4cvc58internal12NodeTemplateILb1EEESaIS3_EEaSERKS5_(ptr noundef nonnull align 8 dereferenceable(24) %d_premise, ptr noundef nonnull align 8 dereferenceable(24) %premise)
  %d_args = getelementptr inbounds i8, ptr %1, i64 40
  %call3 = tail call noundef nonnull align 8 dereferenceable(24) ptr @_ZNSt6vectorIN4cvc58internal12NodeTemplateILb1EEESaIS3_EEaSERKS5_(ptr noundef nonnull align 8 dereferenceable(24) %d_args, ptr noundef nonnull align 8 dereferenceable(24) %args)
  %d_proven = getelementptr inbounds i8, ptr %1, i64 64
  %2 = load ptr, ptr %d_proven, align 8
  %3 = load ptr, ptr %proven, align 8
  %cmp.not.i = icmp eq ptr %2, %3
  br i1 %cmp.not.i, label %_ZN4cvc58internal12NodeTemplateILb1EEaSERKS2_.exit, label %if.then.i

if.then.i:                                        ; preds = %entry
  %bf.load.i.i = load i64, ptr %2, align 8
  %4 = and i64 %bf.load.i.i, 1152920405095219200
  %cmp.not.i.i = icmp eq i64 %4, 1152920405095219200
  br i1 %cmp.not.i.i, label %_ZN4cvc58internal4expr9NodeValue3decEv.exit.i, label %if.then.i.i

if.then.i.i:                                      ; preds = %if.then.i
  %bf.value.i.i = add i64 %bf.load.i.i, 1152920405095219200
  %bf.shl.i.i = and i64 %bf.value.i.i, 1152920405095219200
  %bf.clear7.i.i = and i64 %bf.load.i.i, -1152920405095219201
  %bf.set.i.i = or disjoint i64 %bf.shl.i.i, %bf.clear7.i.i
  store i64 %bf.set.i.i, ptr %2, align 8
  %cmp12.i.i = icmp eq i64 %bf.shl.i.i, 0
  br i1 %cmp12.i.i, label %if.then13.i.i, label %_ZN4cvc58internal4expr9NodeValue3decEv.exit.i

if.then13.i.i:                                    ; preds = %if.then.i.i
  tail call void @_ZN4cvc58internal4expr9NodeValue15markForDeletionEv(ptr noundef nonnull align 8 dereferenceable(16) %2)
  br label %_ZN4cvc58internal4expr9NodeValue3decEv.exit.i

_ZN4cvc58internal4expr9NodeValue3decEv.exit.i:    ; preds = %if.then13.i.i, %if.then.i.i, %if.then.i
  %5 = load ptr, ptr %proven, align 8
  store ptr %5, ptr %d_proven, align 8
  %bf.load.i2.i = load i64, ptr %5, align 8
  %bf.lshr.i.i = lshr i64 %bf.load.i2.i, 40
  %6 = trunc i64 %bf.lshr.i.i to i32
  %bf.cast.i.i = and i32 %6, 1048575
  %cmp.i.i = icmp ult i32 %bf.cast.i.i, 1048574
  br i1 %cmp.i.i, label %if.then.i5.i, label %if.else.i.i

if.then.i5.i:                                     ; preds = %_ZN4cvc58internal4expr9NodeValue3decEv.exit.i
  %bf.value.i6.i = add i64 %bf.load.i2.i, 1099511627776
  %bf.shl.i7.i = and i64 %bf.value.i6.i, 1152920405095219200
  %bf.clear7.i8.i = and i64 %bf.load.i2.i, -1152920405095219201
  %bf.set.i9.i = or disjoint i64 %bf.shl.i7.i, %bf.clear7.i8.i
  store i64 %bf.set.i9.i, ptr %5, align 8
  br label %_ZN4cvc58internal12NodeTemplateILb1EEaSERKS2_.exit

if.else.i.i:                                      ; preds = %_ZN4cvc58internal4expr9NodeValue3decEv.exit.i
  %cmp12.i3.i = icmp eq i32 %bf.cast.i.i, 1048574
  br i1 %cmp12.i3.i, label %if.then13.i4.i, label %_ZN4cvc58internal12NodeTemplateILb1EEaSERKS2_.exit

if.then13.i4.i:                                   ; preds = %if.else.i.i
  %bf.set23.i.i = or i64 %bf.load.i2.i, 1152920405095219200
  store i64 %bf.set23.i.i, ptr %5, align 8
  tail call void @_ZN4cvc58internal4expr9NodeValue20markRefCountMaxedOutEv(ptr noundef nonnull align 8 dereferenceable(16) %5)
  br label %_ZN4cvc58internal12NodeTemplateILb1EEaSERKS2_.exit

_ZN4cvc58internal12NodeTemplateILb1EEaSERKS2_.exit: ; preds = %entry, %if.then.i5.i, %if.else.i.i, %if.then13.i4.i
  ret void
}